target datalayout = "e-m:e-p270:32:32-p271:32:32-p272:64:64-i64:64-i128:128-f80:128-n8:16:32:64-S128"
target triple = "x86_64-pc-linux-gnu"

%struct.AVRational = type { i32, i32 }
%struct.V4L2Context = type { ptr, i32, i32, i32, %struct.v4l2_format, i32, i32, %struct.AVRational, ptr, i32, i32, i32 }
%struct.v4l2_format = type { i32, %union.anon }
%union.anon = type { %struct.v4l2_window, [144 x i8] }
%struct.v4l2_window = type { %struct.v4l2_rect, i32, i32, ptr, i32, ptr, i8 }
%struct.v4l2_rect = type { i32, i32, i32, i32 }

; Function Attrs: nounwind uwtable
define i32 @ff_v4l2_context_dequeue_packet(ptr noundef %0, ptr noundef %1) #0 {
  %3 = alloca i32, align 4
  %4 = alloca ptr, align 8
  %5 = alloca ptr, align 8
  %6 = alloca ptr, align 8
  %7 = alloca i32, align 4
  store ptr %0, ptr %4, align 8, !tbaa !4
  store ptr %1, ptr %5, align 8, !tbaa !43
  call void @llvm.lifetime.start.p0(i64 8, ptr %6) #8
  %8 = load ptr, ptr %4, align 8, !tbaa !4
  %9 = call ptr @v4l2_dequeue_v4l2buf(ptr noundef %8, i32 noundef -1)
  store ptr %9, ptr %6, align 8, !tbaa !31
  %10 = load ptr, ptr %6, align 8, !tbaa !31
  %11 = icmp ne ptr %10, null
  br i1 %11, label %19, label %12

12:                                               ; preds = %2
  %13 = load ptr, ptr %4, align 8, !tbaa !4
  %14 = getelementptr inbounds nuw %struct.V4L2Context, ptr %13, i32 0, i32 11
  %15 = load i32, ptr %14, align 8, !tbaa !46
  %16 = icmp ne i32 %15, 0
  br i1 %16, label %17, label %18

17:                                               ; preds = %12
  store i32 -541478725, ptr %3, align 4
  store i32 1, ptr %7, align 4
  br label %23

18:                                               ; preds = %12
  store i32 -11, ptr %3, align 4
  store i32 1, ptr %7, align 4
  br label %23

19:                                               ; preds = %2
  %20 = load ptr, ptr %5, align 8, !tbaa !43
  %21 = load ptr, ptr %6, align 8, !tbaa !31
  %22 = call i32 @ff_v4l2_buffer_buf_to_avpkt(ptr noundef %20, ptr noundef %21)
  store i32 %22, ptr %3, align 4
  store i32 1, ptr %7, align 4
  br label %23

23:                                               ; preds = %19, %18, %17
  call void @llvm.lifetime.end.p0(i64 8, ptr %6) #8
  %24 = load i32, ptr %3, align 4
  ret i32 %24
}