; Function Attrs: nounwind uwtable
define i32 @ff_v4l2_context_dequeue_packet(ptr noundef %0, ptr noundef %1) local_unnamed_addr #0 {
  %3 = tail call fastcc ptr @v4l2_dequeue_v4l2buf(ptr noundef %0, i32 noundef -1)
  %.not = icmp eq ptr %3, null
  br i1 %.not, label %4, label %7

4:                                                ; preds = %2
  %5 = getelementptr inbounds nuw i8, ptr %0, i64 264
  %6 = load i32, ptr %5, align 8, !tbaa !40
  %.not6 = icmp eq i32 %6, 0
  %. = select i1 %.not6, i32 -11, i32 -541478725
  br label %9

7:                                                ; preds = %2
  %8 = tail call i32 @ff_v4l2_buffer_buf_to_avpkt(ptr noundef %1, ptr noundef nonnull %3) #8
  br label %9

9:                                                ; preds = %4, %7
  %.0 = phi i32 [ %8, %7 ], [ %., %4 ]
  ret i32 %.0
}